target datalayout = "e-m:e-p270:32:32-p271:32:32-p272:64:64-i64:64-i128:128-f80:128-n8:16:32:64-S128"
target triple = "x86_64-pc-linux-gnu"

%struct.mi_heap_s = type { ptr, ptr, i64, i32, i64, [2 x i64], %struct.mi_random_cxt_s, i64, i64, i64, ptr, i8, i8, [129 x ptr], [75 x %struct.mi_page_queue_s] }
%struct.mi_random_cxt_s = type { [16 x i32], [16 x i32], i32, i8 }
%struct.mi_page_queue_s = type { ptr, ptr, i64 }
%struct.mi_tld_s = type { i64, i8, ptr, ptr, %struct.mi_segments_tld_s, %struct.mi_stats_s }
%struct.mi_segments_tld_s = type { %struct.mi_segment_queue_s, %struct.mi_segment_queue_s, %struct.mi_page_queue_s, i64, i64, i64, i64, i64, ptr, ptr }
%struct.mi_segment_queue_s = type { ptr, ptr }
%struct.mi_stats_s = type { %struct.mi_stat_count_s, %struct.mi_stat_count_s, %struct.mi_stat_count_s, %struct.mi_stat_count_s, %struct.mi_stat_count_s, %struct.mi_stat_count_s, %struct.mi_stat_count_s, %struct.mi_stat_count_s, %struct.mi_stat_count_s, %struct.mi_stat_count_s, %struct.mi_stat_count_s, %struct.mi_stat_count_s, %struct.mi_stat_count_s, %struct.mi_stat_count_s, %struct.mi_stat_count_s, %struct.mi_stat_counter_s, %struct.mi_stat_counter_s, %struct.mi_stat_counter_s, %struct.mi_stat_counter_s, %struct.mi_stat_counter_s, %struct.mi_stat_counter_s, %struct.mi_stat_counter_s, %struct.mi_stat_counter_s, %struct.mi_stat_counter_s, %struct.mi_stat_counter_s, %struct.mi_stat_counter_s, %struct.mi_stat_counter_s, %struct.mi_stat_counter_s }
%struct.mi_stat_count_s = type { i64, i64, i64, i64 }
%struct.mi_stat_counter_s = type { i64, i64 }

@_mi_heap_default = external thread_local(initialexec) global ptr, align 8

; Function Attrs: inlinehint nounwind uwtable
define internal ptr @mi_prim_get_default_heap() #1 {
  %1 = call align 8 ptr @llvm.threadlocal.address.p0(ptr align 8 @_mi_heap_default)
  %2 = load ptr, ptr %1, align 8, !tbaa !3
  ret ptr %2
}

; Function Attrs: nounwind uwtable
define hidden ptr @mi_heap_get_default() #0 {
  call void @mi_thread_init() #9
  %1 = call ptr @mi_prim_get_default_heap() #9
  ret ptr %1
}

; Function Attrs: nounwind uwtable
define hidden ptr @mi_heap_get_backing() #0 {
  %1 = alloca ptr, align 8
  %2 = alloca ptr, align 8
  call void @llvm.lifetime.start.p0(i64 8, ptr %1) #10
  %3 = call ptr @mi_heap_get_default() #9
  store ptr %3, ptr %1, align 8, !tbaa !3
  call void @llvm.lifetime.start.p0(i64 8, ptr %2) #10
  %4 = load ptr, ptr %1, align 8, !tbaa !3
  %5 = getelementptr inbounds nuw %struct.mi_heap_s, ptr %4, i32 0, i32 0
  %6 = load ptr, ptr %5, align 8, !tbaa !20
  %7 = getelementptr inbounds nuw %struct.mi_tld_s, ptr %6, i32 0, i32 2
  %8 = load ptr, ptr %7, align 8, !tbaa !21
  store ptr %8, ptr %2, align 8, !tbaa !3
  %9 = load ptr, ptr %2, align 8, !tbaa !3
  call void @llvm.lifetime.end.p0(i64 8, ptr %2) #10
  call void @llvm.lifetime.end.p0(i64 8, ptr %1) #10
  ret ptr %9
}